target datalayout = "e-m:e-p270:32:32-p271:32:32-p272:64:64-i64:64-i128:128-f80:128-n8:16:32:64-S128"
target triple = "x86_64-pc-linux-gnu"

%struct.glob_error_args = type { ptr, ptr, i32 }

; Function Attrs: noreturn nounwind sspstrong uwtable
define internal i64 @glob_func_error(i64 noundef %0) #17 {
  %2 = alloca i64, align 8
  %3 = alloca ptr, align 8
  %4 = alloca i64, align 8
  store i64 %0, ptr %2, align 8, !tbaa !7
  call void @llvm.lifetime.start.p0(i64 8, ptr %3) #26
  %5 = load i64, ptr %2, align 8, !tbaa !7
  %6 = inttoptr i64 %5 to ptr
  store ptr %6, ptr %3, align 8, !tbaa !175
  call void @llvm.lifetime.start.p0(i64 8, ptr %4) #26
  %7 = load ptr, ptr %3, align 8, !tbaa !175
  %8 = getelementptr inbounds nuw %struct.glob_error_args, ptr %7, i32 0, i32 0
  %9 = load ptr, ptr %8, align 8, !tbaa !171
  %10 = load ptr, ptr %3, align 8, !tbaa !175
  %11 = getelementptr inbounds nuw %struct.glob_error_args, ptr %10, i32 0, i32 1
  %12 = load ptr, ptr %11, align 8, !tbaa !173
  %13 = call i64 @rb_enc_str_new_cstr(ptr noundef %9, ptr noundef %12)
  store i64 %13, ptr %4, align 8, !tbaa !7
  %14 = load ptr, ptr %3, align 8, !tbaa !175
  %15 = getelementptr inbounds nuw %struct.glob_error_args, ptr %14, i32 0, i32 2
  %16 = load i32, ptr %15, align 8, !tbaa !174
  %17 = load i64, ptr %4, align 8, !tbaa !7
  call void @rb_syserr_fail_str(i32 noundef %16, i64 noundef %17) #30
  unreachable
}