; Function Attrs: noreturn nounwind sspstrong uwtable
define internal noundef i64 @glob_func_error(i64 noundef %0) #13 {
  %2 = inttoptr i64 %0 to ptr
  %3 = load ptr, ptr %2, align 8, !tbaa !185
  %4 = getelementptr inbounds nuw i8, ptr %2, i64 8
  %5 = load ptr, ptr %4, align 8, !tbaa !187
  %6 = tail call i64 @rb_enc_str_new_cstr(ptr noundef %3, ptr noundef %5) #22
  %7 = getelementptr inbounds nuw i8, ptr %2, i64 16
  %8 = load i32, ptr %7, align 8, !tbaa !188
  tail call void @rb_syserr_fail_str(i32 noundef %8, i64 noundef %6) #26
  unreachable
}